; ModuleID = '45/714.c'
source_filename = "45/714.c"
target datalayout = "e-m:e-p270:32:32-p271:32:32-p272:64:64-i64:64-f80:128-n8:16:32:64-S128"
target triple = "x86_64-pc-linux-gnu"

@.str = private unnamed_addr constant [3 x i8] c"%s\00", align 1
@.str.1 = private unnamed_addr constant [3 x i8] c"%d\00", align 1

; Function Attrs: noinline nounwind uwtable
define dso_local i32 @main() #0 {
  %1 = alloca i32, align 4
  %2 = alloca i8*, align 8
  %3 = alloca i8*, align 8
  %4 = alloca [50 x i8], align 16
  %5 = alloca [50 x i8], align 16
  %6 = alloca i32, align 4
  %7 = alloca i32, align 4
  %8 = alloca i32, align 4
  %9 = alloca i32, align 4
  store i32 0, i32* %1, align 4
  %10 = bitcast [50 x i8]* %4 to i8*
  call void @llvm.memset.p0i8.i64(i8* align 16 %10, i8 0, i64 50, i1 false)
  %11 = bitcast [50 x i8]* %5 to i8*
  call void @llvm.memset.p0i8.i64(i8* align 16 %11, i8 0, i64 50, i1 false)
  %12 = getelementptr inbounds [50 x i8], [50 x i8]* %4, i64 0, i64 0
  store i8* %12, i8** %2, align 8
  %13 = getelementptr inbounds [50 x i8], [50 x i8]* %5, i64 0, i64 0
  store i8* %13, i8** %3, align 8
  %14 = load i8*, i8** %2, align 8
  %15 = call i32 (i8*, ...) @__isoc99_scanf(i8* getelementptr inbounds ([3 x i8], [3 x i8]* @.str, i64 0, i64 0), i8* %14)
  %16 = load i8*, i8** %3, align 8
  %17 = call i32 (i8*, ...) @__isoc99_scanf(i8* getelementptr inbounds ([3 x i8], [3 x i8]* @.str, i64 0, i64 0), i8* %16)
  %18 = getelementptr inbounds [50 x i8], [50 x i8]* %4, i64 0, i64 0
  %19 = call i64 @strlen(i8* %18) #4
  %20 = trunc i64 %19 to i32
  store i32 %20, i32* %8, align 4
  %21 = getelementptr inbounds [50 x i8], [50 x i8]* %5, i64 0, i64 0
  %22 = call i64 @strlen(i8* %21) #4
  %23 = trunc i64 %22 to i32
  store i32 %23, i32* %9, align 4
  store i32 0, i32* %6, align 4
  br label %24

24:                                               ; preds = %67, %0
  %25 = load i32, i32* %6, align 4
  %26 = load i32, i32* %9, align 4
  %27 = icmp slt i32 %25, %26
  br i1 %27, label %28, label %72

28:                                               ; preds = %24
  %29 = load i8*, i8** %3, align 8
  %30 = load i8, i8* %29, align 1
  %31 = sext i8 %30 to i32
  %32 = load i8*, i8** %2, align 8
  %33 = load i8, i8* %32, align 1
  %34 = sext i8 %33 to i32
  %35 = icmp eq i32 %31, %34
  br i1 %35, label %36, label %61

36:                                               ; preds = %28
  store i32 0, i32* %7, align 4
  br label %37

37:                                               ; preds = %57, %36
  %38 = load i32, i32* %7, align 4
  %39 = load i32, i32* %8, align 4
  %40 = icmp slt i32 %38, %39
  br i1 %40, label %41, label %60

41:                                               ; preds = %37
  %42 = load i8*, i8** %3, align 8
  %43 = load i32, i32* %7, align 4
  %44 = sext i32 %43 to i64
  %45 = getelementptr inbounds i8, i8* %42, i64 %44
  %46 = load i8, i8* %45, align 1
  %47 = sext i8 %46 to i32
  %48 = load i8*, i8** %2, align 8
  %49 = load i32, i32* %7, align 4
  %50 = sext i32 %49 to i64
  %51 = getelementptr inbounds i8, i8* %48, i64 %50
  %52 = load i8, i8* %51, align 1
  %53 = sext i8 %52 to i32
  %54 = icmp ne i32 %47, %53
  br i1 %54, label %55, label %56

55:                                               ; preds = %41
  br label %60

56:                                               ; preds = %41
  br label %57

57:                                               ; preds = %56
  %58 = load i32, i32* %7, align 4
  %59 = add nsw i32 %58, 1
  store i32 %59, i32* %7, align 4
  br label %37

60:                                               ; preds = %55, %37
  br label %61

61:                                               ; preds = %60, %28
  %62 = load i32, i32* %7, align 4
  %63 = load i32, i32* %8, align 4
  %64 = icmp eq i32 %62, %63
  br i1 %64, label %65, label %66

65:                                               ; preds = %61
  br label %72

66:                                               ; preds = %61
  br label %67

67:                                               ; preds = %66
  %68 = load i32, i32* %6, align 4
  %69 = add nsw i32 %68, 1
  store i32 %69, i32* %6, align 4
  %70 = load i8*, i8** %3, align 8
  %71 = getelementptr inbounds i8, i8* %70, i32 1
  store i8* %71, i8** %3, align 8
  br label %24

72:                                               ; preds = %65, %24
  %73 = load i32, i32* %6, align 4
  %74 = call i32 (i8*, ...) @printf(i8* getelementptr inbounds ([3 x i8], [3 x i8]* @.str.1, i64 0, i64 0), i32 %73)
  %75 = load i32, i32* %1, align 4
  ret i32 %75
}

; Function Attrs: argmemonly nounwind willreturn
declare void @llvm.memset.p0i8.i64(i8* nocapture writeonly, i8, i64, i1 immarg) #1

declare dso_local i32 @__isoc99_scanf(i8*, ...) #2

; Function Attrs: nounwind readonly
declare dso_local i64 @strlen(i8*) #3

declare dso_local i32 @printf(i8*, ...) #2


!llvm.module.flags = !{!0}
!llvm.ident = !{!1}

!0 = !{i32 1, !"wchar_size", i32 4}
!1 = !{!"clang version 10.0.0-4ubuntu1 "}
